target datalayout = "e-m:e-p270:32:32-p271:32:32-p272:64:64-i64:64-i128:128-f80:128-n8:16:32:64-S128"
target triple = "x86_64-unknown-linux-gnu"

%class.symbol = type { ptr }
%class.svector = type { %class.vector.0 }
%class.vector.0 = type { ptr }
%class.ptr_vector = type { %class.vector }
%class.vector = type { ptr }
%"class.smt::theory" = type <{ ptr, i32, [4 x i8], ptr, ptr, %class.ptr_vector, %class.svector, i32, i8, [3 x i8] }>
%class.ast = type { i32, i24, i32, i32 }
%class.decl = type { %class.ast, %class.symbol, ptr }
%class.decl_info = type <{ i32, i32, %class.vector.334, i8, [7 x i8] }>
%class.vector.334 = type { ptr }

; Function Attrs: mustprogress nounwind uwtable
define linkonce_odr hidden noundef i32 @_ZNK9decl_info13get_decl_kindEv(ptr noundef nonnull align 8 dereferenceable(17) %this) #4 comdat align 2 {
entry:
  %this.addr = alloca ptr, align 8
  store ptr %this, ptr %this.addr, align 8
  %this1 = load ptr, ptr %this.addr, align 8
  %m_kind = getelementptr inbounds %class.decl_info, ptr %this1, i32 0, i32 1
  %0 = load i32, ptr %m_kind, align 4
  ret i32 %0
}

; Function Attrs: mustprogress nounwind uwtable
define linkonce_odr hidden noundef i32 @_ZNK9decl_info13get_family_idEv(ptr noundef nonnull align 8 dereferenceable(17) %this) #4 comdat align 2 {
entry:
  %this.addr = alloca ptr, align 8
  store ptr %this, ptr %this.addr, align 8
  %this1 = load ptr, ptr %this.addr, align 8
  %m_family_id = getelementptr inbounds %class.decl_info, ptr %this1, i32 0, i32 0
  %0 = load i32, ptr %m_family_id, align 8
  ret i32 %0
}

; Function Attrs: mustprogress uwtable
define linkonce_odr hidden noundef i32 @_ZNK4decl13get_decl_kindEv(ptr noundef nonnull align 8 dereferenceable(32) %this) #5 comdat align 2 {
entry:
  %this.addr = alloca ptr, align 8
  store ptr %this, ptr %this.addr, align 8
  %this1 = load ptr, ptr %this.addr, align 8
  %m_info = getelementptr inbounds %class.decl, ptr %this1, i32 0, i32 2
  %0 = load ptr, ptr %m_info, align 8
  %cmp = icmp eq ptr %0, null
  br i1 %cmp, label %cond.true, label %cond.false

cond.true:                                        ; preds = %entry
  br label %cond.end

cond.false:                                       ; preds = %entry
  %m_info2 = getelementptr inbounds %class.decl, ptr %this1, i32 0, i32 2
  %1 = load ptr, ptr %m_info2, align 8
  %call = call noundef i32 @_ZNK9decl_info13get_decl_kindEv(ptr noundef nonnull align 8 dereferenceable(17) %1)
  br label %cond.end

cond.end:                                         ; preds = %cond.false, %cond.true
  %cond = phi i32 [ -1, %cond.true ], [ %call, %cond.false ]
  ret i32 %cond
}

; Function Attrs: mustprogress uwtable
define linkonce_odr hidden noundef i32 @_ZNK4decl13get_family_idEv(ptr noundef nonnull align 8 dereferenceable(32) %this) #5 comdat align 2 {
entry:
  %this.addr = alloca ptr, align 8
  store ptr %this, ptr %this.addr, align 8
  %this1 = load ptr, ptr %this.addr, align 8
  %m_info = getelementptr inbounds %class.decl, ptr %this1, i32 0, i32 2
  %0 = load ptr, ptr %m_info, align 8
  %cmp = icmp eq ptr %0, null
  br i1 %cmp, label %cond.true, label %cond.false

cond.true:                                        ; preds = %entry
  br label %cond.end

cond.false:                                       ; preds = %entry
  %m_info2 = getelementptr inbounds %class.decl, ptr %this1, i32 0, i32 2
  %1 = load ptr, ptr %m_info2, align 8
  %call = call noundef i32 @_ZNK9decl_info13get_family_idEv(ptr noundef nonnull align 8 dereferenceable(17) %1)
  br label %cond.end

cond.end:                                         ; preds = %cond.false, %cond.true
  %cond = phi i32 [ -1, %cond.true ], [ %call, %cond.false ]
  ret i32 %cond
}

; Function Attrs: mustprogress uwtable
define linkonce_odr hidden noundef zeroext i1 @_Z10is_decl_ofPK9func_declii(ptr noundef %d, i32 noundef %fid, i32 noundef %k) #5 comdat {
entry:
  %d.addr = alloca ptr, align 8
  %fid.addr = alloca i32, align 4
  %k.addr = alloca i32, align 4
  store ptr %d, ptr %d.addr, align 8
  store i32 %fid, ptr %fid.addr, align 4
  store i32 %k, ptr %k.addr, align 4
  %0 = load ptr, ptr %d.addr, align 8
  %call = call noundef i32 @_ZNK4decl13get_family_idEv(ptr noundef nonnull align 8 dereferenceable(32) %0)
  %1 = load i32, ptr %fid.addr, align 4
  %cmp = icmp eq i32 %call, %1
  br i1 %cmp, label %land.rhs, label %land.end

land.rhs:                                         ; preds = %entry
  %2 = load ptr, ptr %d.addr, align 8
  %call1 = call noundef i32 @_ZNK4decl13get_decl_kindEv(ptr noundef nonnull align 8 dereferenceable(32) %2)
  %3 = load i32, ptr %k.addr, align 4
  %cmp2 = icmp eq i32 %call1, %3
  br label %land.end

land.end:                                         ; preds = %land.rhs, %entry
  %4 = phi i1 [ false, %entry ], [ %cmp2, %land.rhs ]
  ret i1 %4
}

; Function Attrs: mustprogress nounwind uwtable
define linkonce_odr hidden noundef i32 @_ZNK3smt6theory6get_idEv(ptr noundef nonnull align 8 dereferenceable(53) %this) #4 comdat align 2 {
entry:
  %this.addr = alloca ptr, align 8
  store ptr %this, ptr %this.addr, align 8
  %this1 = load ptr, ptr %this.addr, align 8
  %m_id = getelementptr inbounds %"class.smt::theory", ptr %this1, i32 0, i32 1
  %0 = load i32, ptr %m_id, align 8
  ret i32 %0
}

; Function Attrs: mustprogress uwtable
define hidden noundef zeroext i1 @_ZN3smt17theory_array_base19include_func_interpEP9func_decl(ptr noundef nonnull align 8 dereferenceable(249) %this, ptr noundef %f) unnamed_addr #5 align 2 {
entry:
  %this.addr = alloca ptr, align 8
  %f.addr = alloca ptr, align 8
  store ptr %this, ptr %this.addr, align 8
  store ptr %f, ptr %f.addr, align 8
  %this1 = load ptr, ptr %this.addr, align 8
  %0 = load ptr, ptr %f.addr, align 8
  %call = call noundef i32 @_ZNK3smt6theory6get_idEv(ptr noundef nonnull align 8 dereferenceable(53) %this1)
  %call2 = call noundef zeroext i1 @_Z10is_decl_ofPK9func_declii(ptr noundef %0, i32 noundef %call, i32 noundef 3)
  ret i1 %call2
}