; Function Attrs: mustprogress nofree norecurse nosync nounwind willreturn memory(read, inaccessiblemem: none) uwtable
define hidden noundef zeroext i1 @_ZN3smt17theory_array_base19include_func_interpEP9func_decl(ptr nocapture noundef nonnull readonly align 8 dereferenceable(249) %this, ptr nocapture noundef readonly %f) unnamed_addr #5 align 2 {
entry:
  %m_info.i.i = getelementptr inbounds i8, ptr %f, i64 24
  %0 = load ptr, ptr %m_info.i.i, align 8
  %cmp.i.i = icmp eq ptr %0, null
  br i1 %cmp.i.i, label %_Z10is_decl_ofPK9func_declii.exit, label %_ZNK4decl13get_family_idEv.exit.thread.i

_ZNK4decl13get_family_idEv.exit.thread.i:         ; preds = %entry
  %m_id.i = getelementptr inbounds i8, ptr %this, i64 8
  %1 = load i32, ptr %m_id.i, align 8
  %2 = load i32, ptr %0, align 8
  %cmp7.i = icmp eq i32 %2, %1
  br i1 %cmp7.i, label %cond.false.i4.i, label %_Z10is_decl_ofPK9func_declii.exit

cond.false.i4.i:                                  ; preds = %_ZNK4decl13get_family_idEv.exit.thread.i
  %m_kind.i.i.i = getelementptr inbounds i8, ptr %0, i64 4
  %3 = load i32, ptr %m_kind.i.i.i, align 4
  %4 = icmp eq i32 %3, 3
  br label %_Z10is_decl_ofPK9func_declii.exit

_Z10is_decl_ofPK9func_declii.exit:                ; preds = %entry, %cond.false.i4.i, %_ZNK4decl13get_family_idEv.exit.thread.i
  %5 = phi i1 [ false, %_ZNK4decl13get_family_idEv.exit.thread.i ], [ %4, %cond.false.i4.i ], [ false, %entry ]
  ret i1 %5
}